target datalayout = "e-m:e-p270:32:32-p271:32:32-p272:64:64-i64:64-i128:128-f80:128-n8:16:32:64-S128"
target triple = "x86_64-pc-linux-gnu"

%struct.StochSynData_t_ = type { ptr, ptr, ptr, i32, i32 }

; Function Attrs: nounwind uwtable
define i32 @Gia_StochProcess1(ptr noundef %0) #0 {
  %2 = alloca ptr, align 8
  %3 = alloca ptr, align 8
  store ptr %0, ptr %2, align 8, !tbaa !46
  call void @llvm.lifetime.start.p0(i64 8, ptr %3) #12
  %4 = load ptr, ptr %2, align 8, !tbaa !46
  store ptr %4, ptr %3, align 8, !tbaa !47
  %5 = load ptr, ptr %3, align 8, !tbaa !47
  %6 = getelementptr inbounds nuw %struct.StochSynData_t_, ptr %5, i32 0, i32 0
  %7 = load ptr, ptr %6, align 8, !tbaa !49
  %8 = load ptr, ptr %3, align 8, !tbaa !47
  %9 = getelementptr inbounds nuw %struct.StochSynData_t_, ptr %8, i32 0, i32 2
  %10 = load ptr, ptr %9, align 8, !tbaa !51
  %11 = load ptr, ptr %3, align 8, !tbaa !47
  %12 = getelementptr inbounds nuw %struct.StochSynData_t_, ptr %11, i32 0, i32 3
  %13 = load i32, ptr %12, align 8, !tbaa !52
  %14 = load ptr, ptr %3, align 8, !tbaa !47
  %15 = getelementptr inbounds nuw %struct.StochSynData_t_, ptr %14, i32 0, i32 4
  %16 = load i32, ptr %15, align 4, !tbaa !53
  %17 = call ptr @Gia_StochProcessOne(ptr noundef %7, ptr noundef %10, i32 noundef %13, i32 noundef %16)
  %18 = load ptr, ptr %3, align 8, !tbaa !47
  %19 = getelementptr inbounds nuw %struct.StochSynData_t_, ptr %18, i32 0, i32 1
  store ptr %17, ptr %19, align 8, !tbaa !54
  call void @llvm.lifetime.end.p0(i64 8, ptr %3) #12
  ret i32 1
}