; Function Attrs: nounwind uwtable
define noundef i32 @Gia_StochProcess1(ptr noundef captures(none) initializes((8, 16)) %0) #0 {
  %2 = load ptr, ptr %0, align 8, !tbaa !47
  %3 = getelementptr inbounds nuw i8, ptr %0, i64 16
  %4 = load ptr, ptr %3, align 8, !tbaa !49
  %5 = getelementptr inbounds nuw i8, ptr %0, i64 24
  %6 = load i32, ptr %5, align 8, !tbaa !50
  %7 = tail call ptr @Gia_StochProcessOne(ptr noundef %2, ptr noundef %4, i32 noundef %6, i32 poison)
  %8 = getelementptr inbounds nuw i8, ptr %0, i64 8
  store ptr %7, ptr %8, align 8, !tbaa !51
  ret i32 1
}